; Function Attrs: mustprogress nofree norecurse nosync nounwind memory(readwrite, inaccessiblemem: none) uwtable
define internal void @"_ZNSt17_Function_handlerIFvvEZN3gmx34VelocityScalingTemperatureCoupling12scheduleTaskEldRKSt8functionIFvS3_IS0_EEEE3$_2E9_M_invokeERKSt9_Any_data"(ptr nocapture noundef nonnull readonly align 8 dereferenceable(16) %0) #22 align 2 {
  %2 = load ptr, ptr %0, align 8
  %3 = getelementptr inbounds i8, ptr %2, i64 128
  %4 = load ptr, ptr %3, align 8
  %5 = getelementptr inbounds i8, ptr %2, i64 136
  %6 = load ptr, ptr %5, align 8
  %.not5.i.i.i.i.i = icmp eq ptr %4, %6
  br i1 %.not5.i.i.i.i.i, label %"_ZSt10__invoke_rIvRZN3gmx34VelocityScalingTemperatureCoupling12scheduleTaskEldRKSt8functionIFvS2_IFvvEEEEE3$_2JEENSt9enable_ifIX16is_invocable_r_vIT_T0_DpT1_EESC_E4typeEOSD_DpOSE_.exit", label %.lr.ph.i.i.i.i.i

.lr.ph.i.i.i.i.i:                                 ; preds = %1, %.lr.ph.i.i.i.i.i
  %.07.i.i.i.i.i = phi double [ %8, %.lr.ph.i.i.i.i.i ], [ 0.000000e+00, %1 ]
  %.sroa.02.06.i.i.i.i.i = phi ptr [ %9, %.lr.ph.i.i.i.i.i ], [ %4, %1 ]
  %7 = load double, ptr %.sroa.02.06.i.i.i.i.i, align 8
  %8 = fadd double %.07.i.i.i.i.i, %7
  %9 = getelementptr inbounds i8, ptr %.sroa.02.06.i.i.i.i.i, i64 8
  %.not.i.i.i.i.i = icmp eq ptr %9, %6
  br i1 %.not.i.i.i.i.i, label %_ZSt10accumulateIN9__gnu_cxx17__normal_iteratorIPKdSt6vectorIdSaIdEEEEdET0_T_S9_S8_.exit.loopexit.i.i.i.i, label %.lr.ph.i.i.i.i.i, !llvm.loop !79

_ZSt10accumulateIN9__gnu_cxx17__normal_iteratorIPKdSt6vectorIdSaIdEEEEdET0_T_S9_S8_.exit.loopexit.i.i.i.i: ; preds = %.lr.ph.i.i.i.i.i
  %10 = fptrunc double %8 to float
  br label %"_ZSt10__invoke_rIvRZN3gmx34VelocityScalingTemperatureCoupling12scheduleTaskEldRKSt8functionIFvS2_IFvvEEEEE3$_2JEENSt9enable_ifIX16is_invocable_r_vIT_T0_DpT1_EESC_E4typeEOSD_DpOSE_.exit"

"_ZSt10__invoke_rIvRZN3gmx34VelocityScalingTemperatureCoupling12scheduleTaskEldRKSt8functionIFvS2_IFvvEEEEE3$_2JEENSt9enable_ifIX16is_invocable_r_vIT_T0_DpT1_EESC_E4typeEOSD_DpOSE_.exit": ; preds = %1, %_ZSt10accumulateIN9__gnu_cxx17__normal_iteratorIPKdSt6vectorIdSaIdEEEEdET0_T_S9_S8_.exit.loopexit.i.i.i.i
  %.0.lcssa.i.i.i.i.i = phi float [ 0.000000e+00, %1 ], [ %10, %_ZSt10accumulateIN9__gnu_cxx17__normal_iteratorIPKdSt6vectorIdSaIdEEEEdET0_T_S9_S8_.exit.loopexit.i.i.i.i ]
  %11 = getelementptr inbounds i8, ptr %2, i64 152
  store float %.0.lcssa.i.i.i.i.i, ptr %11, align 8
  %12 = getelementptr inbounds i8, ptr %0, i64 8
  %13 = load i64, ptr %12, align 8
  %14 = getelementptr inbounds i8, ptr %2, i64 160
  store i64 %13, ptr %14, align 8
  ret void
}